target datalayout = "e-m:e-p270:32:32-p271:32:32-p272:64:64-i64:64-i128:128-f80:128-n8:16:32:64-S128"
target triple = "x86_64-pc-linux-gnu"

; Function Attrs: nounwind uwtable
define void @ff_acelp_fc_pulse_per_track(ptr noundef %0, ptr noundef %1, ptr noundef %2, i32 noundef %3, i32 noundef %4, i32 noundef %5, i32 noundef %6) #0 {
  %8 = alloca ptr, align 8
  %9 = alloca ptr, align 8
  %10 = alloca ptr, align 8
  %11 = alloca i32, align 4
  %12 = alloca i32, align 4
  %13 = alloca i32, align 4
  %14 = alloca i32, align 4
  %15 = alloca i32, align 4
  %16 = alloca i32, align 4
  store ptr %0, ptr %8, align 8, !tbaa !4
  store ptr %1, ptr %9, align 8, !tbaa !9
  store ptr %2, ptr %10, align 8, !tbaa !9
  store i32 %3, ptr %11, align 4, !tbaa !11
  store i32 %4, ptr %12, align 4, !tbaa !11
  store i32 %5, ptr %13, align 4, !tbaa !11
  store i32 %6, ptr %14, align 4, !tbaa !11
  call void @llvm.lifetime.start.p0(i64 4, ptr %15) #6
  %17 = load i32, ptr %14, align 4, !tbaa !11
  %18 = shl i32 1, %17
  %19 = sub nsw i32 %18, 1
  store i32 %19, ptr %15, align 4, !tbaa !11
  call void @llvm.lifetime.start.p0(i64 4, ptr %16) #6
  store i32 0, ptr %16, align 4, !tbaa !11
  br label %20

20:                                               ; preds = %51, %7
  %21 = load i32, ptr %16, align 4, !tbaa !11
  %22 = load i32, ptr %13, align 4, !tbaa !11
  %23 = icmp slt i32 %21, %22
  br i1 %23, label %24, label %54

24:                                               ; preds = %20
  %25 = load i32, ptr %12, align 4, !tbaa !11
  %26 = and i32 %25, 1
  %27 = icmp ne i32 %26, 0
  %28 = select i1 %27, i32 8191, i32 -8192
  %29 = load ptr, ptr %8, align 8, !tbaa !4
  %30 = load i32, ptr %16, align 4, !tbaa !11
  %31 = load ptr, ptr %9, align 8, !tbaa !9
  %32 = load i32, ptr %11, align 4, !tbaa !11
  %33 = load i32, ptr %15, align 4, !tbaa !11
  %34 = and i32 %32, %33
  %35 = sext i32 %34 to i64
  %36 = getelementptr inbounds i8, ptr %31, i64 %35
  %37 = load i8, ptr %36, align 1, !tbaa !13
  %38 = zext i8 %37 to i32
  %39 = add nsw i32 %30, %38
  %40 = sext i32 %39 to i64
  %41 = getelementptr inbounds i16, ptr %29, i64 %40
  %42 = load i16, ptr %41, align 2, !tbaa !14
  %43 = sext i16 %42 to i32
  %44 = add nsw i32 %43, %28
  %45 = trunc i32 %44 to i16
  store i16 %45, ptr %41, align 2, !tbaa !14
  %46 = load i32, ptr %14, align 4, !tbaa !11
  %47 = load i32, ptr %11, align 4, !tbaa !11
  %48 = ashr i32 %47, %46
  store i32 %48, ptr %11, align 4, !tbaa !11
  %49 = load i32, ptr %12, align 4, !tbaa !11
  %50 = ashr i32 %49, 1
  store i32 %50, ptr %12, align 4, !tbaa !11
  br label %51

51:                                               ; preds = %24
  %52 = load i32, ptr %16, align 4, !tbaa !11
  %53 = add nsw i32 %52, 1
  store i32 %53, ptr %16, align 4, !tbaa !11
  br label %20, !llvm.loop !16

54:                                               ; preds = %20
  %55 = load i32, ptr %12, align 4, !tbaa !11
  %56 = and i32 %55, 1
  %57 = icmp ne i32 %56, 0
  %58 = select i1 %57, i32 8191, i32 -8192
  %59 = load ptr, ptr %8, align 8, !tbaa !4
  %60 = load ptr, ptr %10, align 8, !tbaa !9
  %61 = load i32, ptr %11, align 4, !tbaa !11
  %62 = sext i32 %61 to i64
  %63 = getelementptr inbounds i8, ptr %60, i64 %62
  %64 = load i8, ptr %63, align 1, !tbaa !13
  %65 = zext i8 %64 to i64
  %66 = getelementptr inbounds nuw i16, ptr %59, i64 %65
  %67 = load i16, ptr %66, align 2, !tbaa !14
  %68 = sext i16 %67 to i32
  %69 = add nsw i32 %68, %58
  %70 = trunc i32 %69 to i16
  store i16 %70, ptr %66, align 2, !tbaa !14
  call void @llvm.lifetime.end.p0(i64 4, ptr %16) #6
  call void @llvm.lifetime.end.p0(i64 4, ptr %15) #6
  ret void
}