; Function Attrs: nofree norecurse nosync nounwind memory(argmem: readwrite) uwtable
define void @ff_acelp_fc_pulse_per_track(ptr noundef captures(none) %0, ptr noundef readonly captures(none) %1, ptr noundef readonly captures(none) %2, i32 noundef %3, i32 noundef %4, i32 noundef %5, i32 noundef %6) local_unnamed_addr #0 {
  %notmask = shl nsw i32 -1, %6
  %8 = xor i32 %notmask, -1
  %9 = icmp sgt i32 %5, 0
  br i1 %9, label %.lr.ph, label %._crit_edge

.lr.ph:                                           ; preds = %7, %.lr.ph
  %.021 = phi i32 [ %24, %.lr.ph ], [ 0, %7 ]
  %.01620 = phi i32 [ %22, %.lr.ph ], [ %3, %7 ]
  %.01719 = phi i32 [ %23, %.lr.ph ], [ %4, %7 ]
  %10 = and i32 %.01719, 1
  %.not18 = icmp eq i32 %10, 0
  %11 = select i1 %.not18, i16 -8192, i16 8191
  %12 = and i32 %.01620, %8
  %13 = zext nneg i32 %12 to i64
  %14 = getelementptr inbounds nuw i8, ptr %1, i64 %13
  %15 = load i8, ptr %14, align 1, !tbaa !4
  %16 = zext i8 %15 to i32
  %17 = add nuw nsw i32 %.021, %16
  %18 = zext nneg i32 %17 to i64
  %19 = getelementptr inbounds nuw i16, ptr %0, i64 %18
  %20 = load i16, ptr %19, align 2, !tbaa !7
  %21 = add i16 %20, %11
  store i16 %21, ptr %19, align 2, !tbaa !7
  %22 = ashr i32 %.01620, %6
  %23 = ashr i32 %.01719, 1
  %24 = add nuw nsw i32 %.021, 1
  %exitcond.not = icmp eq i32 %24, %5
  br i1 %exitcond.not, label %._crit_edge, label %.lr.ph, !llvm.loop !9

._crit_edge:                                      ; preds = %.lr.ph, %7
  %.017.lcssa = phi i32 [ %4, %7 ], [ %23, %.lr.ph ]
  %.016.lcssa = phi i32 [ %3, %7 ], [ %22, %.lr.ph ]
  %25 = and i32 %.017.lcssa, 1
  %.not = icmp eq i32 %25, 0
  %26 = select i1 %.not, i16 -8192, i16 8191
  %27 = sext i32 %.016.lcssa to i64
  %28 = getelementptr inbounds i8, ptr %2, i64 %27
  %29 = load i8, ptr %28, align 1, !tbaa !4
  %30 = zext i8 %29 to i64
  %31 = getelementptr inbounds nuw i16, ptr %0, i64 %30
  %32 = load i16, ptr %31, align 2, !tbaa !7
  %33 = add i16 %32, %26
  store i16 %33, ptr %31, align 2, !tbaa !7
  ret void
}